; Function Attrs: mustprogress nounwind uwtable
define internal fastcc void @_ZN32pxrInternal_v0_24__pxrReserved__12_GLOBAL__N_17NoCacheD2Ev(ptr noundef nonnull align 8 dereferenceable(24) %0) unnamed_addr #3 align 2 personality ptr @__gxx_personality_v0 {
  %2 = getelementptr inbounds nuw i8, ptr %0, i64 16
  %3 = load ptr, ptr %2, align 8
  %.not.i.i.i = icmp eq ptr %3, null
  br i1 %.not.i.i.i, label %_ZN32pxrInternal_v0_24__pxrReserved__22PcpExpressionVariablesD2Ev.exit, label %4

4:                                                ; preds = %1
  %5 = getelementptr inbounds i8, ptr %3, i64 16
  %6 = load ptr, ptr %5, align 8
  invoke void @_ZNSt8_Rb_treeINSt7__cxx1112basic_stringIcSt11char_traitsIcESaIcEEESt4pairIKS5_N32pxrInternal_v0_24__pxrReserved__7VtValueEESt10_Select1stISA_ESt4lessIvESaISA_EE8_M_eraseEPSt13_Rb_tree_nodeISA_E(ptr noundef nonnull align 8 dereferenceable(48) %3, ptr noundef %6)
          to label %_ZNKSt14default_deleteISt3mapINSt7__cxx1112basic_stringIcSt11char_traitsIcESaIcEEEN32pxrInternal_v0_24__pxrReserved__7VtValueESt4lessIvESaISt4pairIKS6_S8_EEEEclEPSF_.exit.i.i.i unwind label %7

7:                                                ; preds = %4
  %8 = landingpad { ptr, i32 }
          catch ptr null
  %9 = extractvalue { ptr, i32 } %8, 0
  tail call void @__clang_call_terminate(ptr %9) #14
  unreachable

_ZNKSt14default_deleteISt3mapINSt7__cxx1112basic_stringIcSt11char_traitsIcESaIcEEEN32pxrInternal_v0_24__pxrReserved__7VtValueESt4lessIvESaISt4pairIKS6_S8_EEEEclEPSF_.exit.i.i.i: ; preds = %4
  tail call void @_ZdlPvm(ptr noundef nonnull %3, i64 noundef 48) #15
  br label %_ZN32pxrInternal_v0_24__pxrReserved__22PcpExpressionVariablesD2Ev.exit

_ZN32pxrInternal_v0_24__pxrReserved__22PcpExpressionVariablesD2Ev.exit: ; preds = %1, %_ZNKSt14default_deleteISt3mapINSt7__cxx1112basic_stringIcSt11char_traitsIcESaIcEEEN32pxrInternal_v0_24__pxrReserved__7VtValueESt4lessIvESaISt4pairIKS6_S8_EEEEclEPSF_.exit.i.i.i
  store ptr null, ptr %2, align 8
  tail call void @_ZN32pxrInternal_v0_24__pxrReserved__28PcpExpressionVariablesSourceD1Ev(ptr noundef nonnull align 8 dereferenceable(16) %0) #13
  ret void
}